#include <math.h>
#include <stdio.h>
#include <stdlib.h>
#include <string.h>

int main()
{
	char c[101];
	int i,a[101],j=0,k;
	while(scanf("%s", c) != EOF)
	{
		puts(c);
		for(i=0;;i++)
		{
			if(c[i]=='\0')break;
			else
			{
				if(c[i]=='(')
				{
					j++;a[j]=i;
				}
				else if(c[i]==')')
				{
					if(j>0)
					{
						c[i]=' ';
						c[a[j]]=' ';
						j--;
					}
				}
			}
		}
		for(k=0;k<i;k++)
		{
			if (c[k]=='(')printf("$");
			else if(c[k]==')')printf("?");
			else printf(" ");
		}
		j=0;
		printf("\n");
	}
}
